---
triple:          'arm64-apple-darwin'
binary-path:     '/Users/Aria/Documents/Seneca/OOP345/exercises/week-03/exercise-01/src/ws'
relocations:
  - { offset: 0x3019, size: 0x8, addend: 0x0, symName: __ZNSt3__124__put_character_sequenceB8ne180100IcNS_11char_traitsIcEEEERNS_13basic_ostreamIT_T0_EES7_PKS4_m, symObjAddr: 0x790, symBinAddr: 0x1000035D4, symSize: 0x1EC }
  - { offset: 0x3EA5, size: 0x8, addend: 0x0, symName: __ZNSt3__1eqB8ne180100INS_9allocatorIcEEEEbRKNS_12basic_stringIcNS_11char_traitsIcEET_EES9_, symObjAddr: 0x30, symBinAddr: 0x100002E74, symSize: 0x148 }
  - { offset: 0x3F18, size: 0x8, addend: 0x0, symName: __ZNSt3__1lsB8ne180100IcNS_11char_traitsIcEENS_9allocatorIcEEEERNS_13basic_ostreamIT_T0_EES9_RKNS_12basic_stringIS6_S7_T1_EE, symObjAddr: 0x318, symBinAddr: 0x10000315C, symSize: 0x4C }
  - { offset: 0x3F70, size: 0x8, addend: 0x0, symName: __ZNSt3__1lsB8ne180100INS_11char_traitsIcEEEERNS_13basic_ostreamIcT_EES6_PKc, symObjAddr: 0x364, symBinAddr: 0x1000031A8, symSize: 0x48 }
  - { offset: 0x3FB6, size: 0x8, addend: 0x0, symName: __ZNSt3__112__to_addressB8ne180100IKcEEPT_S3_, symObjAddr: 0x554, symBinAddr: 0x100003398, symSize: 0x14 }
  - { offset: 0x401E, size: 0x8, addend: 0x0, symName: __ZNSt3__116__pad_and_outputB8ne180100IcNS_11char_traitsIcEEEENS_19ostreambuf_iteratorIT_T0_EES6_PKS4_S8_S8_RNS_8ios_baseES4_, symObjAddr: 0x998, symBinAddr: 0x1000037DC, symSize: 0x240 }
  - { offset: 0x40ED, size: 0x8, addend: 0x0, symName: __ZNSt3__112__to_addressB8ne180100IcEEPT_S2_, symObjAddr: 0xE94, symBinAddr: 0x100003CD8, symSize: 0x14 }
  - { offset: 0x4155, size: 0x8, addend: 0x0, symName: __ZNSt3__19use_facetB8ne180100INS_5ctypeIcEEEERKT_RKNS_6localeE, symObjAddr: 0x10DC, symBinAddr: 0x100003F20, symSize: 0x2C }
  - { offset: 0x4622, size: 0x8, addend: 0x0, symName: __ZNSt3__118__constexpr_strlenB8ne180100EPKc, symObjAddr: 0x11A8, symBinAddr: 0x100003FEC, symSize: 0x24 }
  - { offset: 0x5628, size: 0x8, addend: 0x0, symName: __ZN6senecaeqERKNS_4PairES2_, symObjAddr: 0x0, symBinAddr: 0x100002E44, symSize: 0x30 }
  - { offset: 0x5712, size: 0x8, addend: 0x0, symName: __ZN6senecalsERNSt3__113basic_ostreamIcNS0_11char_traitsIcEEEERKNS_4PairE, symObjAddr: 0x2B4, symBinAddr: 0x1000030F8, symSize: 0x64 }
  - { offset: 0x5766, size: 0x8, addend: 0x0, symName: __ZN6seneca4PairaSERKS0_, symObjAddr: 0x178, symBinAddr: 0x100002FBC, symSize: 0x64 }
  - { offset: 0x579A, size: 0x8, addend: 0x0, symName: __ZN6seneca4PairC2ERKS0_, symObjAddr: 0x1DC, symBinAddr: 0x100003020, symSize: 0x78 }
  - { offset: 0x57D2, size: 0x8, addend: 0x0, symName: __ZNSt3__112basic_stringIcNS_11char_traitsIcEENS_9allocatorIcEEEC1B8ne180100Ev, symObjAddr: 0x254, symBinAddr: 0x100003098, symSize: 0x2C }
  - { offset: 0x57FA, size: 0x8, addend: 0x0, symName: __ZN6seneca4PairC1ERKS0_, symObjAddr: 0x280, symBinAddr: 0x1000030C4, symSize: 0x34 }
  - { offset: 0x5832, size: 0x8, addend: 0x0, symName: __ZNK6seneca4Pair6getKeyEv, symObjAddr: 0x3AC, symBinAddr: 0x1000031F0, symSize: 0x14 }
  - { offset: 0x5856, size: 0x8, addend: 0x0, symName: __ZNK6seneca4Pair8getValueEv, symObjAddr: 0x3C0, symBinAddr: 0x100003204, symSize: 0x18 }
  - { offset: 0x587A, size: 0x8, addend: 0x0, symName: __ZNKSt3__112basic_stringIcNS_11char_traitsIcEENS_9allocatorIcEEE4sizeB8ne180100Ev, symObjAddr: 0x3D8, symBinAddr: 0x10000321C, symSize: 0x54 }
  - { offset: 0x589E, size: 0x8, addend: 0x0, symName: __ZNKSt3__112basic_stringIcNS_11char_traitsIcEENS_9allocatorIcEEE4dataB8ne180100Ev, symObjAddr: 0x42C, symBinAddr: 0x100003270, symSize: 0x28 }
  - { offset: 0x58C2, size: 0x8, addend: 0x0, symName: __ZNKSt3__112basic_stringIcNS_11char_traitsIcEENS_9allocatorIcEEE9__is_longB8ne180100Ev, symObjAddr: 0x454, symBinAddr: 0x100003298, symSize: 0x38 }
  - { offset: 0x58E6, size: 0x8, addend: 0x0, symName: __ZNSt3__111char_traitsIcE7compareB8ne180100EPKcS3_m, symObjAddr: 0x48C, symBinAddr: 0x1000032D0, symSize: 0x34 }
  - { offset: 0x5924, size: 0x8, addend: 0x0, symName: __ZNKSt3__112basic_stringIcNS_11char_traitsIcEENS_9allocatorIcEEE15__get_long_sizeB8ne180100Ev, symObjAddr: 0x4C0, symBinAddr: 0x100003304, symSize: 0x28 }
  - { offset: 0x5948, size: 0x8, addend: 0x0, symName: __ZNKSt3__112basic_stringIcNS_11char_traitsIcEENS_9allocatorIcEEE16__get_short_sizeB8ne180100Ev, symObjAddr: 0x4E8, symBinAddr: 0x10000332C, symSize: 0x34 }
  - { offset: 0x596C, size: 0x8, addend: 0x0, symName: __ZNKSt3__117__compressed_pairINS_12basic_stringIcNS_11char_traitsIcEENS_9allocatorIcEEE5__repES5_E5firstB8ne180100Ev, symObjAddr: 0x51C, symBinAddr: 0x100003360, symSize: 0x24 }
  - { offset: 0x5990, size: 0x8, addend: 0x0, symName: __ZNKSt3__122__compressed_pair_elemINS_12basic_stringIcNS_11char_traitsIcEENS_9allocatorIcEEE5__repELi0ELb0EE5__getB8ne180100Ev, symObjAddr: 0x540, symBinAddr: 0x100003384, symSize: 0x14 }
  - { offset: 0x59B4, size: 0x8, addend: 0x0, symName: __ZNKSt3__112basic_stringIcNS_11char_traitsIcEENS_9allocatorIcEEE13__get_pointerB8ne180100Ev, symObjAddr: 0x568, symBinAddr: 0x1000033AC, symSize: 0x54 }
  - { offset: 0x59D8, size: 0x8, addend: 0x0, symName: __ZNKSt3__112basic_stringIcNS_11char_traitsIcEENS_9allocatorIcEEE18__get_long_pointerB8ne180100Ev, symObjAddr: 0x5BC, symBinAddr: 0x100003400, symSize: 0x28 }
  - { offset: 0x59FC, size: 0x8, addend: 0x0, symName: __ZNKSt3__112basic_stringIcNS_11char_traitsIcEENS_9allocatorIcEEE19__get_short_pointerB8ne180100Ev, symObjAddr: 0x5E4, symBinAddr: 0x100003428, symSize: 0x28 }
  - { offset: 0x5A20, size: 0x8, addend: 0x0, symName: __ZNSt3__114pointer_traitsIPKcE10pointer_toB8ne180100ERS1_, symObjAddr: 0x60C, symBinAddr: 0x100003450, symSize: 0x14 }
  - { offset: 0x5A42, size: 0x8, addend: 0x0, symName: __ZNSt3__112basic_stringIcNS_11char_traitsIcEENS_9allocatorIcEEEC2B8ne180100Ev, symObjAddr: 0x620, symBinAddr: 0x100003464, symSize: 0x48 }
  - { offset: 0x5A74, size: 0x8, addend: 0x0, symName: __ZNSt3__117__compressed_pairINS_12basic_stringIcNS_11char_traitsIcEENS_9allocatorIcEEE5__repES5_EC1B8ne180100INS_16__value_init_tagENS_18__default_init_tagEEEOT_OT0_, symObjAddr: 0x668, symBinAddr: 0x1000034AC, symSize: 0x3C }
  - { offset: 0x5ACA, size: 0x8, addend: 0x0, symName: __ZNKSt3__112basic_stringIcNS_11char_traitsIcEENS_9allocatorIcEEE14__annotate_newB8ne180100Em, symObjAddr: 0x6B4, symBinAddr: 0x1000034F8, symSize: 0x14 }
  - { offset: 0x5AFD, size: 0x8, addend: 0x0, symName: __ZNSt3__117__compressed_pairINS_12basic_stringIcNS_11char_traitsIcEENS_9allocatorIcEEE5__repES5_EC2B8ne180100INS_16__value_init_tagENS_18__default_init_tagEEEOT_OT0_, symObjAddr: 0x6C8, symBinAddr: 0x10000350C, symSize: 0x3C }
  - { offset: 0x5B53, size: 0x8, addend: 0x0, symName: __ZNSt3__122__compressed_pair_elemINS_12basic_stringIcNS_11char_traitsIcEENS_9allocatorIcEEE5__repELi0ELb0EEC2B8ne180100ENS_16__value_init_tagE, symObjAddr: 0x704, symBinAddr: 0x100003548, symSize: 0x20 }
  - { offset: 0x5B85, size: 0x8, addend: 0x0, symName: __ZNSt3__122__compressed_pair_elemINS_9allocatorIcEELi1ELb1EEC2B8ne180100ENS_18__default_init_tagE, symObjAddr: 0x724, symBinAddr: 0x100003568, symSize: 0x2C }
  - { offset: 0x5BB7, size: 0x8, addend: 0x0, symName: __ZNSt3__19allocatorIcEC2B8ne180100Ev, symObjAddr: 0x750, symBinAddr: 0x100003594, symSize: 0x2C }
  - { offset: 0x5BDF, size: 0x8, addend: 0x0, symName: __ZNSt3__116__non_trivial_ifILb1ENS_9allocatorIcEEEC2B8ne180100Ev, symObjAddr: 0x77C, symBinAddr: 0x1000035C0, symSize: 0x14 }
  - { offset: 0x5C25, size: 0x8, addend: 0x0, symName: __ZNKSt3__113basic_ostreamIcNS_11char_traitsIcEEE6sentrycvbB8ne180100Ev, symObjAddr: 0x97C, symBinAddr: 0x1000037C0, symSize: 0x1C }
  - { offset: 0x5C49, size: 0x8, addend: 0x0, symName: __ZNSt3__119ostreambuf_iteratorIcNS_11char_traitsIcEEEC1B8ne180100ERNS_13basic_ostreamIcS2_EE, symObjAddr: 0xBD8, symBinAddr: 0x100003A1C, symSize: 0x34 }
  - { offset: 0x5C7F, size: 0x8, addend: 0x0, symName: __ZNKSt3__18ios_base5flagsB8ne180100Ev, symObjAddr: 0xC0C, symBinAddr: 0x100003A50, symSize: 0x18 }
  - { offset: 0x5CA5, size: 0x8, addend: 0x0, symName: __ZNKSt3__19basic_iosIcNS_11char_traitsIcEEE4fillB8ne180100Ev, symObjAddr: 0xC24, symBinAddr: 0x100003A68, symSize: 0x64 }
  - { offset: 0x5CCB, size: 0x8, addend: 0x0, symName: __ZNKSt3__119ostreambuf_iteratorIcNS_11char_traitsIcEEE6failedB8ne180100Ev, symObjAddr: 0xC88, symBinAddr: 0x100003ACC, symSize: 0x24 }
  - { offset: 0x5CEF, size: 0x8, addend: 0x0, symName: __ZNSt3__19basic_iosIcNS_11char_traitsIcEEE8setstateB8ne180100Ej, symObjAddr: 0xCAC, symBinAddr: 0x100003AF0, symSize: 0x2C }
  - { offset: 0x5D22, size: 0x8, addend: 0x0, symName: __ZNKSt3__18ios_base5widthB8ne180100Ev, symObjAddr: 0xCD8, symBinAddr: 0x100003B1C, symSize: 0x18 }
  - { offset: 0x5D48, size: 0x8, addend: 0x0, symName: __ZNSt3__115basic_streambufIcNS_11char_traitsIcEEE5sputnB8ne180100EPKcl, symObjAddr: 0xCF0, symBinAddr: 0x100003B34, symSize: 0x3C }
  - { offset: 0x5D88, size: 0x8, addend: 0x0, symName: __ZNSt3__112basic_stringIcNS_11char_traitsIcEENS_9allocatorIcEEEC1B8ne180100Emc, symObjAddr: 0xD2C, symBinAddr: 0x100003B70, symSize: 0x3C }
  - { offset: 0x5DCE, size: 0x8, addend: 0x0, symName: __ZNSt3__112basic_stringIcNS_11char_traitsIcEENS_9allocatorIcEEE4dataB8ne180100Ev, symObjAddr: 0xD68, symBinAddr: 0x100003BAC, symSize: 0x28 }
  - { offset: 0x5DF2, size: 0x8, addend: 0x0, symName: __ZNSt3__18ios_base5widthB8ne180100El, symObjAddr: 0xD90, symBinAddr: 0x100003BD4, symSize: 0x2C }
  - { offset: 0x5E36, size: 0x8, addend: 0x0, symName: __ZNSt3__112basic_stringIcNS_11char_traitsIcEENS_9allocatorIcEEEC2B8ne180100Emc, symObjAddr: 0xDBC, symBinAddr: 0x100003C00, symSize: 0x4C }
  - { offset: 0x5E7C, size: 0x8, addend: 0x0, symName: __ZNSt3__117__compressed_pairINS_12basic_stringIcNS_11char_traitsIcEENS_9allocatorIcEEE5__repES5_EC1B8ne180100INS_18__default_init_tagESA_EEOT_OT0_, symObjAddr: 0xE08, symBinAddr: 0x100003C4C, symSize: 0x3C }
  - { offset: 0x5ED2, size: 0x8, addend: 0x0, symName: __ZNSt3__117__compressed_pairINS_12basic_stringIcNS_11char_traitsIcEENS_9allocatorIcEEE5__repES5_EC2B8ne180100INS_18__default_init_tagESA_EEOT_OT0_, symObjAddr: 0xE44, symBinAddr: 0x100003C88, symSize: 0x3C }
  - { offset: 0x5F28, size: 0x8, addend: 0x0, symName: __ZNSt3__122__compressed_pair_elemINS_12basic_stringIcNS_11char_traitsIcEENS_9allocatorIcEEE5__repELi0ELb0EEC2B8ne180100ENS_18__default_init_tagE, symObjAddr: 0xE80, symBinAddr: 0x100003CC4, symSize: 0x14 }
  - { offset: 0x5F5A, size: 0x8, addend: 0x0, symName: __ZNSt3__112basic_stringIcNS_11char_traitsIcEENS_9allocatorIcEEE13__get_pointerB8ne180100Ev, symObjAddr: 0xEA8, symBinAddr: 0x100003CEC, symSize: 0x54 }
  - { offset: 0x5F7E, size: 0x8, addend: 0x0, symName: __ZNSt3__112basic_stringIcNS_11char_traitsIcEENS_9allocatorIcEEE18__get_long_pointerB8ne180100Ev, symObjAddr: 0xEFC, symBinAddr: 0x100003D40, symSize: 0x28 }
  - { offset: 0x5FA2, size: 0x8, addend: 0x0, symName: __ZNSt3__112basic_stringIcNS_11char_traitsIcEENS_9allocatorIcEEE19__get_short_pointerB8ne180100Ev, symObjAddr: 0xF24, symBinAddr: 0x100003D68, symSize: 0x28 }
  - { offset: 0x5FC6, size: 0x8, addend: 0x0, symName: __ZNSt3__117__compressed_pairINS_12basic_stringIcNS_11char_traitsIcEENS_9allocatorIcEEE5__repES5_E5firstB8ne180100Ev, symObjAddr: 0xF4C, symBinAddr: 0x100003D90, symSize: 0x24 }
  - { offset: 0x5FEA, size: 0x8, addend: 0x0, symName: __ZNSt3__122__compressed_pair_elemINS_12basic_stringIcNS_11char_traitsIcEENS_9allocatorIcEEE5__repELi0ELb0EE5__getB8ne180100Ev, symObjAddr: 0xF70, symBinAddr: 0x100003DB4, symSize: 0x14 }
  - { offset: 0x600E, size: 0x8, addend: 0x0, symName: __ZNSt3__114pointer_traitsIPcE10pointer_toB8ne180100ERc, symObjAddr: 0xF84, symBinAddr: 0x100003DC8, symSize: 0x14 }
  - { offset: 0x6030, size: 0x8, addend: 0x0, symName: __ZNSt3__119ostreambuf_iteratorIcNS_11char_traitsIcEEEC2B8ne180100ERNS_13basic_ostreamIcS2_EE, symObjAddr: 0xF98, symBinAddr: 0x100003DDC, symSize: 0x54 }
  - { offset: 0x6066, size: 0x8, addend: 0x0, symName: __ZNKSt3__19basic_iosIcNS_11char_traitsIcEEE5rdbufB8ne180100Ev, symObjAddr: 0xFEC, symBinAddr: 0x100003E30, symSize: 0x24 }
  - { offset: 0x608C, size: 0x8, addend: 0x0, symName: __ZNKSt3__18ios_base5rdbufB8ne180100Ev, symObjAddr: 0x1010, symBinAddr: 0x100003E54, symSize: 0x18 }
  - { offset: 0x60B0, size: 0x8, addend: 0x0, symName: __ZNSt3__111char_traitsIcE11eq_int_typeB8ne180100Eii, symObjAddr: 0x1028, symBinAddr: 0x100003E6C, symSize: 0x28 }
  - { offset: 0x60E2, size: 0x8, addend: 0x0, symName: __ZNSt3__111char_traitsIcE3eofB8ne180100Ev, symObjAddr: 0x1050, symBinAddr: 0x100003E94, symSize: 0x8 }
  - { offset: 0x60F5, size: 0x8, addend: 0x0, symName: __ZNKSt3__19basic_iosIcNS_11char_traitsIcEEE5widenB8ne180100Ec, symObjAddr: 0x1058, symBinAddr: 0x100003E9C, symSize: 0x84 }
  - { offset: 0x616C, size: 0x8, addend: 0x0, symName: __ZNKSt3__15ctypeIcE5widenB8ne180100Ec, symObjAddr: 0x1108, symBinAddr: 0x100003F4C, symSize: 0x38 }
  - { offset: 0x619F, size: 0x8, addend: 0x0, symName: __ZNSt3__18ios_base8setstateB8ne180100Ej, symObjAddr: 0x1140, symBinAddr: 0x100003F84, symSize: 0x34 }
  - { offset: 0x61D4, size: 0x8, addend: 0x0, symName: __ZNSt3__111char_traitsIcE6lengthB8ne180100EPKc, symObjAddr: 0x1174, symBinAddr: 0x100003FB8, symSize: 0x34 }
  - { offset: 0x84D1, size: 0x8, addend: 0x0, symName: __ZN6seneca10CollectionINS_4PairELj100EE10defaultValE, symObjAddr: 0x21FA0, symBinAddr: 0x10000C058, symSize: 0x0 }
  - { offset: 0x8672, size: 0x8, addend: 0x0, symName: __ZN6seneca10CollectionINS_4PairELj50EE10defaultValE, symObjAddr: 0x4988, symBinAddr: 0x10000C000, symSize: 0x0 }
  - { offset: 0x8763, size: 0x8, addend: 0x0, symName: __ZN6seneca10CollectionIdLj100EE10defaultValE, symObjAddr: 0x49C0, symBinAddr: 0x10000C038, symSize: 0x0 }
  - { offset: 0x8854, size: 0x8, addend: 0x0, symName: __ZN6seneca10CollectionIlLj20EE10defaultValE, symObjAddr: 0x49C8, symBinAddr: 0x10000C040, symSize: 0x0 }
  - { offset: 0x8944, size: 0x8, addend: 0x0, symName: __ZN6seneca10CollectionIlLj100EE10defaultValE, symObjAddr: 0x49D0, symBinAddr: 0x10000C048, symSize: 0x0 }
  - { offset: 0x8A35, size: 0x8, addend: 0x0, symName: __ZN6seneca10CollectionIdLj30EE10defaultValE, symObjAddr: 0x49D8, symBinAddr: 0x10000C050, symSize: 0x0 }
  - { offset: 0xBFD8, size: 0x8, addend: 0x0, symName: __ZNSt3__1lsB8ne180100INS_11char_traitsIcEEEERNS_13basic_ostreamIcT_EES6_c, symObjAddr: 0x1D78, symBinAddr: 0x100005D40, symSize: 0x34 }
  - { offset: 0xC01E, size: 0x8, addend: 0x0, symName: __ZNSt3__1lsB8ne180100IcNS_11char_traitsIcEEEERNS_13basic_ostreamIT_T0_EES7_RKNS_8__iom_t6E, symObjAddr: 0x1DAC, symBinAddr: 0x100005D74, symSize: 0x40 }
  - { offset: 0xC06A, size: 0x8, addend: 0x0, symName: __ZNSt3__14setwB8ne180100Ei, symObjAddr: 0x1DEC, symBinAddr: 0x100005DB4, symSize: 0x2C }
  - { offset: 0xC096, size: 0x8, addend: 0x0, symName: __ZNSt3__14endlB8ne180100IcNS_11char_traitsIcEEEERNS_13basic_ostreamIT_T0_EES7_, symObjAddr: 0x3C18, symBinAddr: 0x100007040, symSize: 0x58 }
  - { offset: 0xCF01, size: 0x8, addend: 0x0, symName: _cout, symObjAddr: 0x21FD0, symBinAddr: 0x10000C088, symSize: 0x0 }
  - { offset: 0xCFB4, size: 0x8, addend: 0x0, symName: __ZNSt3__112basic_stringIcNS_11char_traitsIcEENS_9allocatorIcEEEC1B8ne180100ILi0EEEPKc, symObjAddr: 0x0, symBinAddr: 0x100004010, symSize: 0x34 }
  - { offset: 0xCFF2, size: 0x8, addend: 0x0, symName: __ZN6seneca4PairC1ERKNSt3__112basic_stringIcNS1_11char_traitsIcEENS1_9allocatorIcEEEES9_, symObjAddr: 0x34, symBinAddr: 0x100004044, symSize: 0x3C }
  - { offset: 0xD036, size: 0x8, addend: 0x0, symName: __ZN6seneca4PairD1Ev, symObjAddr: 0x70, symBinAddr: 0x100004080, symSize: 0x2C }
  - { offset: 0xD063, size: 0x8, addend: 0x0, symName: __ZN6seneca3SetIdE3addERKd, symObjAddr: 0x9C, symBinAddr: 0x1000040AC, symSize: 0xD8 }
  - { offset: 0xD0B4, size: 0x8, addend: 0x0, symName: __ZNK6seneca10CollectionIdLj100EE4sizeEv, symObjAddr: 0x174, symBinAddr: 0x100004184, symSize: 0x18 }
  - { offset: 0xD0DA, size: 0x8, addend: 0x0, symName: __ZN6seneca10CollectionIdLj100EEixEj, symObjAddr: 0x18C, symBinAddr: 0x10000419C, symSize: 0x60 }
  - { offset: 0xD10E, size: 0x8, addend: 0x0, symName: __ZN6seneca10CollectionIdLj100EE3addERKd, symObjAddr: 0x1EC, symBinAddr: 0x1000041FC, symSize: 0x84 }
  - { offset: 0xD142, size: 0x8, addend: 0x0, symName: _main, symObjAddr: 0x270, symBinAddr: 0x100004280, symSize: 0x1AC0 }
  - { offset: 0xD454, size: 0x8, addend: 0x0, symName: __ZN6seneca10CollectionIlLj20EEC1Ev, symObjAddr: 0x1E18, symBinAddr: 0x100005DE0, symSize: 0x2C }
  - { offset: 0xD47D, size: 0x8, addend: 0x0, symName: __ZN6seneca10CollectionIlLj20EE3addERKl, symObjAddr: 0x1E44, symBinAddr: 0x100005E0C, symSize: 0x84 }
  - { offset: 0xD4B1, size: 0x8, addend: 0x0, symName: __ZNK6seneca10CollectionIlLj20EE4sizeEv, symObjAddr: 0x1EC8, symBinAddr: 0x100005E90, symSize: 0x18 }
  - { offset: 0xD4D7, size: 0x8, addend: 0x0, symName: __ZN6seneca10CollectionIlLj20EE7displayERNSt3__113basic_ostreamIcNS2_11char_traitsIcEEEE, symObjAddr: 0x1EE0, symBinAddr: 0x100005EA8, symSize: 0x84 }
  - { offset: 0xD529, size: 0x8, addend: 0x0, symName: __ZN6seneca10CollectionIlLj20EEixEj, symObjAddr: 0x1F64, symBinAddr: 0x100005F2C, symSize: 0x60 }
  - { offset: 0xD55C, size: 0x8, addend: 0x0, symName: __ZN6seneca10CollectionIlLj20EED1Ev, symObjAddr: 0x1FC4, symBinAddr: 0x100005F8C, symSize: 0x2C }
  - { offset: 0xD589, size: 0x8, addend: 0x0, symName: __ZN6seneca3SetIlEC1Ev, symObjAddr: 0x1FF0, symBinAddr: 0x100005FB8, symSize: 0x2C }
  - { offset: 0xD5B4, size: 0x8, addend: 0x0, symName: __ZNK6seneca10CollectionIlLj100EE4sizeEv, symObjAddr: 0x201C, symBinAddr: 0x100005FE4, symSize: 0x18 }
  - { offset: 0xD5DA, size: 0x8, addend: 0x0, symName: __ZN6seneca10CollectionIlLj100EE7displayERNSt3__113basic_ostreamIcNS2_11char_traitsIcEEEE, symObjAddr: 0x2034, symBinAddr: 0x100005FFC, symSize: 0x84 }
  - { offset: 0xD62C, size: 0x8, addend: 0x0, symName: __ZN6seneca10CollectionIlLj100EEixEj, symObjAddr: 0x20B8, symBinAddr: 0x100006080, symSize: 0x60 }
  - { offset: 0xD65F, size: 0x8, addend: 0x0, symName: __ZN6seneca10CollectionIdLj30EEC1Ev, symObjAddr: 0x2118, symBinAddr: 0x1000060E0, symSize: 0x2C }
  - { offset: 0xD688, size: 0x8, addend: 0x0, symName: __ZN6seneca10CollectionIdLj30EE3addERKd, symObjAddr: 0x2144, symBinAddr: 0x10000610C, symSize: 0x84 }
  - { offset: 0xD6BC, size: 0x8, addend: 0x0, symName: __ZNK6seneca10CollectionIdLj30EE4sizeEv, symObjAddr: 0x21C8, symBinAddr: 0x100006190, symSize: 0x18 }
  - { offset: 0xD6E2, size: 0x8, addend: 0x0, symName: __ZN6seneca10CollectionIdLj30EE7displayERNSt3__113basic_ostreamIcNS2_11char_traitsIcEEEE, symObjAddr: 0x21E0, symBinAddr: 0x1000061A8, symSize: 0x84 }
  - { offset: 0xD734, size: 0x8, addend: 0x0, symName: __ZN6seneca10CollectionIdLj30EEixEj, symObjAddr: 0x2264, symBinAddr: 0x10000622C, symSize: 0x60 }
  - { offset: 0xD767, size: 0x8, addend: 0x0, symName: __ZN6seneca10CollectionIdLj30EED1Ev, symObjAddr: 0x22C4, symBinAddr: 0x10000628C, symSize: 0x2C }
  - { offset: 0xD78F, size: 0x8, addend: 0x0, symName: __ZN6seneca3SetIdEC1Ev, symObjAddr: 0x22F0, symBinAddr: 0x1000062B8, symSize: 0x2C }
  - { offset: 0xD7BA, size: 0x8, addend: 0x0, symName: __ZN6seneca10CollectionIdLj100EE7displayERNSt3__113basic_ostreamIcNS2_11char_traitsIcEEEE, symObjAddr: 0x231C, symBinAddr: 0x1000062E4, symSize: 0x84 }
  - { offset: 0xD80B, size: 0x8, addend: 0x0, symName: __ZN6seneca10CollectionINS_4PairELj50EEC1Ev, symObjAddr: 0x23A0, symBinAddr: 0x100006368, symSize: 0x2C }
  - { offset: 0xD834, size: 0x8, addend: 0x0, symName: __ZN6seneca10CollectionINS_4PairELj50EE3addERKS1_, symObjAddr: 0x23CC, symBinAddr: 0x100006394, symSize: 0x9C }
  - { offset: 0xD868, size: 0x8, addend: 0x0, symName: __ZNK6seneca10CollectionINS_4PairELj50EE4sizeEv, symObjAddr: 0x2468, symBinAddr: 0x100006430, symSize: 0x18 }
  - { offset: 0xD88E, size: 0x8, addend: 0x0, symName: __ZN6seneca10CollectionINS_4PairELj50EE7displayERNSt3__113basic_ostreamIcNS3_11char_traitsIcEEEE, symObjAddr: 0x2480, symBinAddr: 0x100006448, symSize: 0x8C }
  - { offset: 0xD8E0, size: 0x8, addend: 0x0, symName: __ZN6seneca10CollectionINS_4PairELj50EEixEj, symObjAddr: 0x2558, symBinAddr: 0x1000064D4, symSize: 0x68 }
  - { offset: 0xD913, size: 0x8, addend: 0x0, symName: __ZN6seneca10CollectionINS_4PairELj50EED1Ev, symObjAddr: 0x25EC, symBinAddr: 0x10000653C, symSize: 0x2C }
  - { offset: 0xD940, size: 0x8, addend: 0x0, symName: __ZN6seneca3SetINS_4PairEEC1Ev, symObjAddr: 0x2618, symBinAddr: 0x100006568, symSize: 0x2C }
  - { offset: 0xD96B, size: 0x8, addend: 0x0, symName: __ZNK6seneca10CollectionINS_4PairELj100EE4sizeEv, symObjAddr: 0x2644, symBinAddr: 0x100006594, symSize: 0x18 }
  - { offset: 0xD991, size: 0x8, addend: 0x0, symName: __ZN6seneca10CollectionINS_4PairELj100EE7displayERNSt3__113basic_ostreamIcNS3_11char_traitsIcEEEE, symObjAddr: 0x265C, symBinAddr: 0x1000065AC, symSize: 0x8C }
  - { offset: 0xD9E3, size: 0x8, addend: 0x0, symName: __ZN6seneca10CollectionINS_4PairELj100EEixEj, symObjAddr: 0x26E8, symBinAddr: 0x100006638, symSize: 0x68 }
  - { offset: 0xDA16, size: 0x8, addend: 0x0, symName: __ZN6seneca4PairC1Ev, symObjAddr: 0x2750, symBinAddr: 0x1000066A0, symSize: 0x2C }
  - { offset: 0xDA3E, size: 0x8, addend: 0x0, symName: __ZN6seneca4PairC2ERKNSt3__112basic_stringIcNS1_11char_traitsIcEENS1_9allocatorIcEEEES9_, symObjAddr: 0x277C, symBinAddr: 0x1000066CC, symSize: 0x70 }
  - { offset: 0xDA82, size: 0x8, addend: 0x0, symName: __ZN6seneca4PairD2Ev, symObjAddr: 0x27EC, symBinAddr: 0x10000673C, symSize: 0x38 }
  - { offset: 0xDAAA, size: 0x8, addend: 0x0, symName: __ZNSt3__18__iom_t6C1B8ne180100Ei, symObjAddr: 0x2824, symBinAddr: 0x100006774, symSize: 0x34 }
  - { offset: 0xDAE0, size: 0x8, addend: 0x0, symName: __ZNSt3__18__iom_t6C2B8ne180100Ei, symObjAddr: 0x2858, symBinAddr: 0x1000067A8, symSize: 0x20 }
  - { offset: 0xDB16, size: 0x8, addend: 0x0, symName: __ZN6seneca3SetIlEC2Ev, symObjAddr: 0x2878, symBinAddr: 0x1000067C8, symSize: 0x3C }
  - { offset: 0xDB40, size: 0x8, addend: 0x0, symName: __ZN6seneca10CollectionIlLj100EEC2Ev, symObjAddr: 0x28B4, symBinAddr: 0x100006804, symSize: 0x28 }
  - { offset: 0xDB69, size: 0x8, addend: 0x0, symName: __ZN6seneca3SetIlE3addERKl, symObjAddr: 0x28DC, symBinAddr: 0x10000682C, symSize: 0xCC }
  - { offset: 0xDBBB, size: 0x8, addend: 0x0, symName: __ZN6seneca3SetIlED1Ev, symObjAddr: 0x29A8, symBinAddr: 0x1000068F8, symSize: 0x2C }
  - { offset: 0xDBE5, size: 0x8, addend: 0x0, symName: __ZN6seneca3SetIlED0Ev, symObjAddr: 0x29D4, symBinAddr: 0x100006924, symSize: 0x30 }
  - { offset: 0xDC0F, size: 0x8, addend: 0x0, symName: __ZN6seneca10CollectionIlLj100EE3addERKl, symObjAddr: 0x2A04, symBinAddr: 0x100006954, symSize: 0x84 }
  - { offset: 0xDC42, size: 0x8, addend: 0x0, symName: __ZN6seneca10CollectionIlLj100EED1Ev, symObjAddr: 0x2A88, symBinAddr: 0x1000069D8, symSize: 0x2C }
  - { offset: 0xDC6A, size: 0x8, addend: 0x0, symName: __ZN6seneca10CollectionIlLj100EED0Ev, symObjAddr: 0x2AB4, symBinAddr: 0x100006A04, symSize: 0x30 }
  - { offset: 0xDC92, size: 0x8, addend: 0x0, symName: __ZN6seneca10CollectionIlLj100EED2Ev, symObjAddr: 0x2AE4, symBinAddr: 0x100006A34, symSize: 0x14 }
  - { offset: 0xDCBB, size: 0x8, addend: 0x0, symName: __ZN6seneca3SetIlED2Ev, symObjAddr: 0x2AF8, symBinAddr: 0x100006A48, symSize: 0x2C }
  - { offset: 0xDCE4, size: 0x8, addend: 0x0, symName: __ZN6seneca3SetIdEC2Ev, symObjAddr: 0x2B24, symBinAddr: 0x100006A74, symSize: 0x3C }
  - { offset: 0xDD0E, size: 0x8, addend: 0x0, symName: __ZN6seneca10CollectionIdLj100EEC2Ev, symObjAddr: 0x2B60, symBinAddr: 0x100006AB0, symSize: 0x28 }
  - { offset: 0xDD37, size: 0x8, addend: 0x0, symName: __ZN6seneca3SetIdED1Ev, symObjAddr: 0x2B88, symBinAddr: 0x100006AD8, symSize: 0x2C }
  - { offset: 0xDD61, size: 0x8, addend: 0x0, symName: __ZN6seneca3SetIdED0Ev, symObjAddr: 0x2BB4, symBinAddr: 0x100006B04, symSize: 0x30 }
  - { offset: 0xDD8A, size: 0x8, addend: 0x0, symName: __ZN6seneca10CollectionIdLj100EED1Ev, symObjAddr: 0x2BE4, symBinAddr: 0x100006B34, symSize: 0x2C }
  - { offset: 0xDDB2, size: 0x8, addend: 0x0, symName: __ZN6seneca10CollectionIdLj100EED0Ev, symObjAddr: 0x2C10, symBinAddr: 0x100006B60, symSize: 0x30 }
  - { offset: 0xDDDA, size: 0x8, addend: 0x0, symName: __ZN6seneca10CollectionIdLj100EED2Ev, symObjAddr: 0x2C40, symBinAddr: 0x100006B90, symSize: 0x14 }
  - { offset: 0xDE03, size: 0x8, addend: 0x0, symName: __ZN6seneca3SetIdED2Ev, symObjAddr: 0x2C54, symBinAddr: 0x100006BA4, symSize: 0x2C }
  - { offset: 0xDE2C, size: 0x8, addend: 0x0, symName: __ZN6seneca3SetINS_4PairEEC2Ev, symObjAddr: 0x2C80, symBinAddr: 0x100006BD0, symSize: 0x3C }
  - { offset: 0xDE56, size: 0x8, addend: 0x0, symName: __ZN6seneca10CollectionINS_4PairELj100EEC2Ev, symObjAddr: 0x2CBC, symBinAddr: 0x100006C0C, symSize: 0x84 }
  - { offset: 0xDE7F, size: 0x8, addend: 0x0, symName: __ZN6seneca3SetINS_4PairEE3addERKS1_, symObjAddr: 0x2D40, symBinAddr: 0x100006C90, symSize: 0xC0 }
  - { offset: 0xDED1, size: 0x8, addend: 0x0, symName: __ZN6seneca3SetINS_4PairEED1Ev, symObjAddr: 0x2E00, symBinAddr: 0x100006D50, symSize: 0x2C }
  - { offset: 0xDEFB, size: 0x8, addend: 0x0, symName: __ZN6seneca3SetINS_4PairEED0Ev, symObjAddr: 0x2E2C, symBinAddr: 0x100006D7C, symSize: 0x30 }
  - { offset: 0xDF25, size: 0x8, addend: 0x0, symName: __ZN6seneca10CollectionINS_4PairELj100EE3addERKS1_, symObjAddr: 0x2E5C, symBinAddr: 0x100006DAC, symSize: 0x9C }
  - { offset: 0xDF58, size: 0x8, addend: 0x0, symName: __ZN6seneca10CollectionINS_4PairELj100EED1Ev, symObjAddr: 0x2EF8, symBinAddr: 0x100006E48, symSize: 0x2C }
  - { offset: 0xDF80, size: 0x8, addend: 0x0, symName: __ZN6seneca10CollectionINS_4PairELj100EED0Ev, symObjAddr: 0x2F24, symBinAddr: 0x100006E74, symSize: 0x30 }
  - { offset: 0xDFA8, size: 0x8, addend: 0x0, symName: __ZN6seneca10CollectionINS_4PairELj100EED2Ev, symObjAddr: 0x2F54, symBinAddr: 0x100006EA4, symSize: 0x80 }
  - { offset: 0xDFD1, size: 0x8, addend: 0x0, symName: __ZN6seneca3SetINS_4PairEED2Ev, symObjAddr: 0x2FD4, symBinAddr: 0x100006F24, symSize: 0x2C }
  - { offset: 0xDFFA, size: 0x8, addend: 0x0, symName: __ZNSt3__112basic_stringIcNS_11char_traitsIcEENS_9allocatorIcEEEC2B8ne180100ILi0EEEPKc, symObjAddr: 0x3000, symBinAddr: 0x100006F50, symSize: 0x58 }
  - { offset: 0xE056, size: 0x8, addend: 0x0, symName: __ZN6seneca10CollectionIlLj20EEC2Ev, symObjAddr: 0x3B80, symBinAddr: 0x100006FA8, symSize: 0x28 }
  - { offset: 0xE07E, size: 0x8, addend: 0x0, symName: __ZN6seneca10CollectionIlLj20EED0Ev, symObjAddr: 0x3BA8, symBinAddr: 0x100006FD0, symSize: 0x30 }
  - { offset: 0xE0A6, size: 0x8, addend: 0x0, symName: __ZN6seneca10CollectionIlLj20EED2Ev, symObjAddr: 0x3BD8, symBinAddr: 0x100007000, symSize: 0x14 }
  - { offset: 0xE0CE, size: 0x8, addend: 0x0, symName: __ZNSt3__113basic_ostreamIcNS_11char_traitsIcEEElsB8ne180100EPFRS3_S4_E, symObjAddr: 0x3BEC, symBinAddr: 0x100007014, symSize: 0x2C }
  - { offset: 0xE100, size: 0x8, addend: 0x0, symName: __ZN6seneca10CollectionIdLj30EEC2Ev, symObjAddr: 0x3C70, symBinAddr: 0x100007098, symSize: 0x28 }
  - { offset: 0xE128, size: 0x8, addend: 0x0, symName: __ZN6seneca10CollectionIdLj30EED0Ev, symObjAddr: 0x3C98, symBinAddr: 0x1000070C0, symSize: 0x30 }
  - { offset: 0xE150, size: 0x8, addend: 0x0, symName: __ZN6seneca10CollectionIdLj30EED2Ev, symObjAddr: 0x3CC8, symBinAddr: 0x1000070F0, symSize: 0x14 }
  - { offset: 0xE178, size: 0x8, addend: 0x0, symName: __ZN6seneca10CollectionINS_4PairELj50EEC2Ev, symObjAddr: 0x3CDC, symBinAddr: 0x100007104, symSize: 0x80 }
  - { offset: 0xE1A0, size: 0x8, addend: 0x0, symName: __ZN6seneca10CollectionINS_4PairELj50EED0Ev, symObjAddr: 0x3D5C, symBinAddr: 0x100007184, symSize: 0x30 }
  - { offset: 0xE1C8, size: 0x8, addend: 0x0, symName: __ZN6seneca10CollectionINS_4PairELj50EED2Ev, symObjAddr: 0x3D8C, symBinAddr: 0x1000071B4, symSize: 0x7C }
  - { offset: 0xE1F0, size: 0x8, addend: 0x0, symName: __ZN6seneca4PairC2Ev, symObjAddr: 0x3E08, symBinAddr: 0x100007230, symSize: 0x38 }
...
